; Function Attrs: mustprogress uwtable
define noundef zeroext i1 @pkpy_to_float(ptr noundef %0, i32 noundef %1, ptr noundef writeonly captures(none) %2) local_unnamed_addr #4 personality ptr @__gxx_personality_v0 {
  %4 = alloca ptr, align 8
  %5 = alloca ptr, align 8
  %6 = getelementptr inbounds nuw i8, ptr %0, i64 264488
  %7 = load ptr, ptr %6, align 8
  %.not = icmp eq ptr %7, null
  br i1 %.not, label %8, label %43

8:                                                ; preds = %3
  %9 = invoke fastcc noundef ptr @_ZL10stack_itemPN4pkpy2VMEi(ptr noundef nonnull %0, i32 noundef %1)
          to label %10 unwind label %12

10:                                               ; preds = %8
  %11 = invoke noundef double @_ZN4pkpy18_py_cast__internalIdLb1EEET_PNS_2VMEPNS_8PyObjectE(ptr noundef nonnull %0, ptr noundef %9)
          to label %_ZN4pkpy7py_castIdEET_PNS_2VMEPNS_8PyObjectE.exit unwind label %12

_ZN4pkpy7py_castIdEET_PNS_2VMEPNS_8PyObjectE.exit: ; preds = %10
  store double %11, ptr %2, align 8
  br label %43

12:                                               ; preds = %10, %8
  %13 = landingpad { ptr, i32 }
          catch ptr @_ZTIN4pkpy9ExceptionE
          catch ptr @_ZTISt9exception
  %14 = extractvalue { ptr, i32 } %13, 0
  %15 = extractvalue { ptr, i32 } %13, 1
  %16 = tail call i32 @llvm.eh.typeid.for.p0(ptr nonnull @_ZTIN4pkpy9ExceptionE) #32
  %17 = icmp eq i32 %15, %16
  br i1 %17, label %18, label %22

18:                                               ; preds = %12
  %19 = tail call ptr @__cxa_begin_catch(ptr %14) #32
  %20 = invoke noundef ptr @_ZNK4pkpy9Exception4selfEv(ptr noundef nonnull align 8 dereferenceable(88) %19)
          to label %21 unwind label %41

21:                                               ; preds = %18
  store ptr %20, ptr %6, align 8
  tail call void @__cxa_end_catch()
  br label %43

22:                                               ; preds = %12
  %23 = tail call i32 @llvm.eh.typeid.for.p0(ptr nonnull @_ZTISt9exception) #32
  %24 = icmp eq i32 %15, %23
  br i1 %24, label %25, label %44

25:                                               ; preds = %22
  %26 = tail call ptr @__cxa_begin_catch(ptr %14) #32
  %27 = getelementptr inbounds nuw i8, ptr %0, i64 264328
  %28 = load ptr, ptr %27, align 8
  %29 = getelementptr inbounds nuw i8, ptr %28, i64 4920
  %30 = load ptr, ptr %29, align 8
  %31 = load ptr, ptr %26, align 8
  %32 = getelementptr inbounds nuw i8, ptr %31, i64 16
  %33 = load ptr, ptr %32, align 8
  %34 = tail call noundef ptr %33(ptr noundef nonnull align 8 dereferenceable(8) %26) #32
  store ptr %34, ptr %5, align 8
  %35 = invoke noundef ptr @_ZN4pkpy6py_varIPKcEEPNS_8PyObjectEPNS_2VMEOT_(ptr noundef nonnull %0, ptr noundef nonnull align 8 dereferenceable(8) %5)
          to label %36 unwind label %39

36:                                               ; preds = %25
  store ptr %35, ptr %4, align 8
  %37 = invoke noundef ptr @_ZN4pkpy2VM4callIJPNS_8PyObjectEEEES3_S3_DpOT_(ptr noundef nonnull align 8 dereferenceable(264913) %0, ptr noundef %30, ptr noundef nonnull align 8 dereferenceable(8) %4)
          to label %38 unwind label %39

38:                                               ; preds = %36
  store ptr %37, ptr %6, align 8
  call void @__cxa_end_catch()
  br label %43

39:                                               ; preds = %36, %25
  %40 = landingpad { ptr, i32 }
          cleanup
  invoke void @__cxa_end_catch()
          to label %44 unwind label %45

41:                                               ; preds = %18
  %42 = landingpad { ptr, i32 }
          cleanup
  invoke void @__cxa_end_catch()
          to label %44 unwind label %45

43:                                               ; preds = %3, %_ZN4pkpy7py_castIdEET_PNS_2VMEPNS_8PyObjectE.exit, %38, %21
  %.0 = phi i1 [ true, %_ZN4pkpy7py_castIdEET_PNS_2VMEPNS_8PyObjectE.exit ], [ false, %21 ], [ false, %38 ], [ false, %3 ]
  ret i1 %.0

44:                                               ; preds = %41, %39, %22
  %.merged = phi { ptr, i32 } [ %42, %41 ], [ %40, %39 ], [ %13, %22 ]
  resume { ptr, i32 } %.merged

45:                                               ; preds = %41, %39
  %46 = landingpad { ptr, i32 }
          catch ptr null
  %47 = extractvalue { ptr, i32 } %46, 0
  call void @__clang_call_terminate(ptr %47) #29
  unreachable
}